(lp0
S'poi'
p1
aS'salary'
p2
aS'bonus'
p3
aS'long_term_incentive'
p4
aS'deferred_income'
p5
aS'deferral_payments'
p6
aS'total_payments'
p7
aS'exercised_stock_options'
p8
aS'restricted_stock'
p9
aS'restricted_stock_deferred'
p10
aS'total_stock_value'
p11
aS'fraction_from_poi'
p12
aS'fraction_to_poi'
p13
a.